; ModuleID = 'source-C-CXX/2/1592.c'
source_filename = "source-C-CXX/2/1592.c"
target datalayout = "e-m:e-p270:32:32-p271:32:32-p272:64:64-i64:64-f80:128-n8:16:32:64-S128"
target triple = "x86_64-pc-linux-gnu"

@.str = private unnamed_addr constant [5 x i8] c"%d%d\00", align 1
@.str.1 = private unnamed_addr constant [3 x i8] c"%d\00", align 1
@.str.2 = private unnamed_addr constant [4 x i8] c"yes\00", align 1
@.str.3 = private unnamed_addr constant [3 x i8] c"no\00", align 1

; Function Attrs: nofree nounwind sspstrong uwtable
define dso_local i32 @main() local_unnamed_addr #0 {
  %1 = alloca i32, align 4
  %2 = alloca i32, align 4
  %3 = alloca [100 x i32], align 16
  %4 = bitcast i32* %1 to i8*
  call void @llvm.lifetime.start.p0i8(i64 4, i8* nonnull %4) #3
  %5 = bitcast i32* %2 to i8*
  call void @llvm.lifetime.start.p0i8(i64 4, i8* nonnull %5) #3
  %6 = bitcast [100 x i32]* %3 to i8*
  call void @llvm.lifetime.start.p0i8(i64 400, i8* nonnull %6) #3
  %7 = call i32 (i8*, ...) @__isoc99_scanf(i8* getelementptr inbounds ([5 x i8], [5 x i8]* @.str, i64 0, i64 0), i32* nonnull %1, i32* nonnull %2)
  %8 = load i32, i32* %1, align 4, !tbaa !5
  %9 = icmp sgt i32 %8, 0
  br i1 %9, label %10, label %18

10:                                               ; preds = %0, %10
  %11 = phi i64 [ %14, %10 ], [ 0, %0 ]
  %12 = getelementptr inbounds [100 x i32], [100 x i32]* %3, i64 0, i64 %11
  %13 = call i32 (i8*, ...) @__isoc99_scanf(i8* getelementptr inbounds ([3 x i8], [3 x i8]* @.str.1, i64 0, i64 0), i32* nonnull %12)
  %14 = add nuw nsw i64 %11, 1
  %15 = load i32, i32* %1, align 4, !tbaa !5
  %16 = sext i32 %15 to i64
  %17 = icmp slt i64 %14, %16
  br i1 %17, label %10, label %18, !llvm.loop !9

18:                                               ; preds = %10, %0
  %19 = phi i32 [ %8, %0 ], [ %15, %10 ]
  br label %20

20:                                               ; preds = %18, %64
  %21 = phi i32 [ %65, %64 ], [ %19, %18 ]
  %22 = phi i64 [ %28, %64 ], [ 0, %18 ]
  %23 = phi i64 [ %69, %64 ], [ 1, %18 ]
  %24 = add nsw i32 %21, -1
  %25 = sext i32 %24 to i64
  %26 = icmp slt i64 %22, %25
  br i1 %26, label %27, label %70

27:                                               ; preds = %20
  %28 = add nuw nsw i64 %22, 1
  %29 = getelementptr inbounds [100 x i32], [100 x i32]* %3, i64 0, i64 %22
  %30 = trunc i64 %28 to i32
  %31 = icmp sgt i32 %21, %30
  br i1 %31, label %32, label %55

32:                                               ; preds = %27, %50
  %33 = phi i32 [ %51, %50 ], [ %21, %27 ]
  %34 = phi i64 [ %52, %50 ], [ %23, %27 ]
  %35 = load i32, i32* %29, align 4, !tbaa !5
  %36 = getelementptr inbounds [100 x i32], [100 x i32]* %3, i64 0, i64 %34
  %37 = load i32, i32* %36, align 4, !tbaa !5
  %38 = add nsw i32 %37, %35
  %39 = load i32, i32* %2, align 4, !tbaa !5
  %40 = icmp eq i32 %38, %39
  br i1 %40, label %41, label %43

41:                                               ; preds = %32
  %42 = call i32 (i8*, ...) @printf(i8* nonnull dereferenceable(1) getelementptr inbounds ([4 x i8], [4 x i8]* @.str.2, i64 0, i64 0))
  br label %55

43:                                               ; preds = %32
  %44 = add nsw i32 %33, -2
  %45 = zext i32 %44 to i64
  %46 = icmp eq i64 %22, %45
  br i1 %46, label %47, label %50

47:                                               ; preds = %43
  %48 = call i32 (i8*, ...) @printf(i8* nonnull dereferenceable(1) getelementptr inbounds ([3 x i8], [3 x i8]* @.str.3, i64 0, i64 0))
  %49 = load i32, i32* %1, align 4, !tbaa !5
  br label %50

50:                                               ; preds = %47, %43
  %51 = phi i32 [ %49, %47 ], [ %33, %43 ]
  %52 = add nuw nsw i64 %34, 1
  %53 = trunc i64 %52 to i32
  %54 = icmp sgt i32 %51, %53
  br i1 %54, label %32, label %55, !llvm.loop !11

55:                                               ; preds = %50, %27, %41
  %56 = phi i64 [ %34, %41 ], [ %28, %27 ], [ %52, %50 ]
  %57 = load i32, i32* %29, align 4, !tbaa !5
  %58 = and i64 %56, 4294967295
  %59 = getelementptr inbounds [100 x i32], [100 x i32]* %3, i64 0, i64 %58
  %60 = load i32, i32* %59, align 4, !tbaa !5
  %61 = add nsw i32 %60, %57
  %62 = load i32, i32* %2, align 4, !tbaa !5
  %63 = icmp eq i32 %61, %62
  br i1 %63, label %70, label %64

64:                                               ; preds = %55
  %65 = load i32, i32* %1, align 4, !tbaa !5
  %66 = add nsw i32 %65, -2
  %67 = zext i32 %66 to i64
  %68 = icmp eq i64 %22, %67
  %69 = add nuw nsw i64 %23, 1
  br i1 %68, label %70, label %20, !llvm.loop !12

70:                                               ; preds = %64, %55, %20
  call void @llvm.lifetime.end.p0i8(i64 400, i8* nonnull %6) #3
  call void @llvm.lifetime.end.p0i8(i64 4, i8* nonnull %5) #3
  call void @llvm.lifetime.end.p0i8(i64 4, i8* nonnull %4) #3
  ret i32 0
}

; Function Attrs: argmemonly mustprogress nofree nosync nounwind willreturn
declare void @llvm.lifetime.start.p0i8(i64 immarg, i8* nocapture) #1

; Function Attrs: nofree nounwind
declare noundef i32 @__isoc99_scanf(i8* nocapture noundef readonly, ...) local_unnamed_addr #2

; Function Attrs: nofree nounwind
declare noundef i32 @printf(i8* nocapture noundef readonly, ...) local_unnamed_addr #2

; Function Attrs: argmemonly mustprogress nofree nosync nounwind willreturn
declare void @llvm.lifetime.end.p0i8(i64 immarg, i8* nocapture) #1


!llvm.module.flags = !{!0, !1, !2, !3}
!llvm.ident = !{!4}

!0 = !{i32 1, !"wchar_size", i32 4}
!1 = !{i32 7, !"PIC Level", i32 2}
!2 = !{i32 7, !"PIE Level", i32 2}
!3 = !{i32 7, !"uwtable", i32 1}
!4 = !{!"clang version 13.0.0"}
!5 = !{!6, !6, i64 0}
!6 = !{!"int", !7, i64 0}
!7 = !{!"omnipotent char", !8, i64 0}
!8 = !{!"Simple C/C++ TBAA"}
!9 = distinct !{!9, !10}
!10 = !{!"llvm.loop.mustprogress"}
!11 = distinct !{!11, !10}
!12 = distinct !{!12, !10}
